; Function Attrs: null_pointer_is_valid sspstrong uwtable
define internal i32 @fsrvp_dissect_AddToShadowCopySet_request(ptr noundef %0, i32 noundef %1, ptr noundef %2, ptr noundef %3, ptr noundef initializes((72, 80)) %4, ptr noundef %5) #0 {
  %7 = getelementptr inbounds nuw i8, ptr %4, i64 72
  store ptr @.str.71, ptr %7, align 8
  %8 = load i32, ptr @hf_fsrvp_fsrvp_AddToShadowCopySet_ClientShadowCopyId, align 4
  %9 = tail call i32 @dissect_ndr_uuid_t(ptr noundef %0, i32 noundef %1, ptr noundef %2, ptr noundef %3, ptr noundef %4, ptr noundef %5, i32 noundef %8, ptr noundef null)
  %10 = load i32, ptr @hf_fsrvp_fsrvp_AddToShadowCopySet_ShadowCopySetId, align 4
  %11 = tail call i32 @dissect_ndr_uuid_t(ptr noundef %0, i32 noundef %9, ptr noundef %2, ptr noundef %3, ptr noundef %4, ptr noundef %5, i32 noundef %10, ptr noundef null)
  %12 = load i32, ptr @hf_fsrvp_fsrvp_AddToShadowCopySet_ShareName, align 4
  %13 = tail call i32 @dissect_ndr_toplevel_pointer(ptr noundef %0, i32 noundef %11, ptr noundef %2, ptr noundef %3, ptr noundef %4, ptr noundef %5, ptr noundef nonnull @fsrvp_dissect_element_AddToShadowCopySet_ShareName_, i32 noundef 1, ptr noundef nonnull @.str.87, i32 noundef %12)
  %14 = tail call i32 @dissect_deferred_pointers(ptr noundef %2, ptr noundef %0, i32 noundef %13, ptr noundef %4, ptr noundef %5)
  ret i32 %14
}